target datalayout = "e-m:e-p270:32:32-p271:32:32-p272:64:64-i64:64-i128:128-f80:128-n8:16:32:64-S128"
target triple = "x86_64-pc-linux-gnu"

@.str.179 = private unnamed_addr constant [4 x i8] c"%s\0A\00", align 1
@.str.183 = private unnamed_addr constant [21 x i8] c"%s: <No Attributes>\0A\00", align 1
@.str.184 = private unnamed_addr constant [24 x i8] c"%s: <Empty Attributes>\0A\00", align 1
@.str.185 = private unnamed_addr constant [5 x i8] c"    \00", align 1
@.str.186 = private unnamed_addr constant [3 x i8] c": \00", align 1
@.str.187 = private unnamed_addr constant [5 x i8] c"%s: \00", align 1
@.str.188 = private unnamed_addr constant [13 x i8] c"<No Values>\0A\00", align 1

; Function Attrs: inlinehint nounwind uwtable
define internal ptr @ossl_check_const_X509_ATTRIBUTE_sk_type(ptr noundef %0) #4 {
  %2 = alloca ptr, align 8
  store ptr %0, ptr %2, align 8, !tbaa !65
  %3 = load ptr, ptr %2, align 8, !tbaa !65
  ret ptr %3
}

; Function Attrs: nounwind uwtable
define dso_local i32 @print_attribs(ptr noundef %0, ptr noundef %1, ptr noundef %2) #0 {
  %4 = alloca i32, align 4
  %5 = alloca ptr, align 8
  %6 = alloca ptr, align 8
  %7 = alloca ptr, align 8
  %8 = alloca ptr, align 8
  %9 = alloca ptr, align 8
  %10 = alloca i32, align 4
  %11 = alloca i32, align 4
  %12 = alloca i32, align 4
  %13 = alloca i32, align 4
  %14 = alloca ptr, align 8
  store ptr %0, ptr %5, align 8, !tbaa !15
  store ptr %1, ptr %6, align 8, !tbaa !65
  store ptr %2, ptr %7, align 8, !tbaa !11
  call void @llvm.lifetime.start.p0(i64 8, ptr %8) #6
  call void @llvm.lifetime.start.p0(i64 8, ptr %9) #6
  call void @llvm.lifetime.start.p0(i64 4, ptr %10) #6
  call void @llvm.lifetime.start.p0(i64 4, ptr %11) #6
  call void @llvm.lifetime.start.p0(i64 4, ptr %12) #6
  %15 = load ptr, ptr %6, align 8, !tbaa !65
  %16 = icmp ne ptr %15, null
  br i1 %16, label %21, label %17

17:                                               ; preds = %3
  %18 = load ptr, ptr %5, align 8, !tbaa !15
  %19 = load ptr, ptr %7, align 8, !tbaa !11
  %20 = call i32 (ptr, ptr, ...) @BIO_printf(ptr noundef %18, ptr noundef @.str.183, ptr noundef %19)
  store i32 1, ptr %4, align 4
  store i32 1, ptr %13, align 4
  br label %92

21:                                               ; preds = %3
  %22 = load ptr, ptr %6, align 8, !tbaa !65
  %23 = call ptr @ossl_check_const_X509_ATTRIBUTE_sk_type(ptr noundef %22)
  %24 = call i32 @OPENSSL_sk_num(ptr noundef %23)
  %25 = icmp ne i32 %24, 0
  br i1 %25, label %30, label %26

26:                                               ; preds = %21
  %27 = load ptr, ptr %5, align 8, !tbaa !15
  %28 = load ptr, ptr %7, align 8, !tbaa !11
  %29 = call i32 (ptr, ptr, ...) @BIO_printf(ptr noundef %27, ptr noundef @.str.184, ptr noundef %28)
  store i32 1, ptr %4, align 4
  store i32 1, ptr %13, align 4
  br label %92

30:                                               ; preds = %21
  %31 = load ptr, ptr %5, align 8, !tbaa !15
  %32 = load ptr, ptr %7, align 8, !tbaa !11
  %33 = call i32 (ptr, ptr, ...) @BIO_printf(ptr noundef %31, ptr noundef @.str.179, ptr noundef %32)
  store i32 0, ptr %10, align 4, !tbaa !4
  br label %34

34:                                               ; preds = %88, %30
  %35 = load i32, ptr %10, align 4, !tbaa !4
  %36 = load ptr, ptr %6, align 8, !tbaa !65
  %37 = call ptr @ossl_check_const_X509_ATTRIBUTE_sk_type(ptr noundef %36)
  %38 = call i32 @OPENSSL_sk_num(ptr noundef %37)
  %39 = icmp slt i32 %35, %38
  br i1 %39, label %40, label %91

40:                                               ; preds = %34
  call void @llvm.lifetime.start.p0(i64 8, ptr %14) #6
  %41 = load ptr, ptr %6, align 8, !tbaa !65
  %42 = call ptr @ossl_check_const_X509_ATTRIBUTE_sk_type(ptr noundef %41)
  %43 = load i32, ptr %10, align 4, !tbaa !4
  %44 = call ptr @OPENSSL_sk_value(ptr noundef %42, i32 noundef %43)
  store ptr %44, ptr %8, align 8, !tbaa !67
  %45 = load ptr, ptr %8, align 8, !tbaa !67
  %46 = call ptr @X509_ATTRIBUTE_get0_object(ptr noundef %45)
  store ptr %46, ptr %14, align 8, !tbaa !33
  %47 = load ptr, ptr %14, align 8, !tbaa !33
  %48 = call i32 @OBJ_obj2nid(ptr noundef %47)
  store i32 %48, ptr %12, align 4, !tbaa !4
  %49 = load ptr, ptr %5, align 8, !tbaa !15
  %50 = call i32 (ptr, ptr, ...) @BIO_printf(ptr noundef %49, ptr noundef @.str.185)
  %51 = load i32, ptr %12, align 4, !tbaa !4
  %52 = icmp eq i32 %51, 0
  br i1 %52, label %53, label %59

53:                                               ; preds = %40
  %54 = load ptr, ptr %5, align 8, !tbaa !15
  %55 = load ptr, ptr %14, align 8, !tbaa !33
  %56 = call i32 @i2a_ASN1_OBJECT(ptr noundef %54, ptr noundef %55)
  %57 = load ptr, ptr %5, align 8, !tbaa !15
  %58 = call i32 (ptr, ptr, ...) @BIO_printf(ptr noundef %57, ptr noundef @.str.186)
  br label %64

59:                                               ; preds = %40
  %60 = load ptr, ptr %5, align 8, !tbaa !15
  %61 = load i32, ptr %12, align 4, !tbaa !4
  %62 = call ptr @OBJ_nid2ln(i32 noundef %61)
  %63 = call i32 (ptr, ptr, ...) @BIO_printf(ptr noundef %60, ptr noundef @.str.187, ptr noundef %62)
  br label %64

64:                                               ; preds = %59, %53
  %65 = load ptr, ptr %8, align 8, !tbaa !67
  %66 = call i32 @X509_ATTRIBUTE_count(ptr noundef %65)
  %67 = icmp ne i32 %66, 0
  br i1 %67, label %68, label %84

68:                                               ; preds = %64
  store i32 0, ptr %11, align 4, !tbaa !4
  br label %69

69:                                               ; preds = %80, %68
  %70 = load i32, ptr %11, align 4, !tbaa !4
  %71 = load ptr, ptr %8, align 8, !tbaa !67
  %72 = call i32 @X509_ATTRIBUTE_count(ptr noundef %71)
  %73 = icmp slt i32 %70, %72
  br i1 %73, label %74, label %83

74:                                               ; preds = %69
  %75 = load ptr, ptr %8, align 8, !tbaa !67
  %76 = load i32, ptr %11, align 4, !tbaa !4
  %77 = call ptr @X509_ATTRIBUTE_get0_type(ptr noundef %75, i32 noundef %76)
  store ptr %77, ptr %9, align 8, !tbaa !107
  %78 = load ptr, ptr %5, align 8, !tbaa !15
  %79 = load ptr, ptr %9, align 8, !tbaa !107
  call void @print_attribute(ptr noundef %78, ptr noundef %79)
  br label %80

80:                                               ; preds = %74
  %81 = load i32, ptr %11, align 4, !tbaa !4
  %82 = add nsw i32 %81, 1
  store i32 %82, ptr %11, align 4, !tbaa !4
  br label %69, !llvm.loop !108

83:                                               ; preds = %69
  br label %87

84:                                               ; preds = %64
  %85 = load ptr, ptr %5, align 8, !tbaa !15
  %86 = call i32 (ptr, ptr, ...) @BIO_printf(ptr noundef %85, ptr noundef @.str.188)
  br label %87

87:                                               ; preds = %84, %83
  call void @llvm.lifetime.end.p0(i64 8, ptr %14) #6
  br label %88

88:                                               ; preds = %87
  %89 = load i32, ptr %10, align 4, !tbaa !4
  %90 = add nsw i32 %89, 1
  store i32 %90, ptr %10, align 4, !tbaa !4
  br label %34, !llvm.loop !109

91:                                               ; preds = %34
  store i32 1, ptr %4, align 4
  store i32 1, ptr %13, align 4
  br label %92

92:                                               ; preds = %91, %26, %17
  call void @llvm.lifetime.end.p0(i64 4, ptr %12) #6
  call void @llvm.lifetime.end.p0(i64 4, ptr %11) #6
  call void @llvm.lifetime.end.p0(i64 4, ptr %10) #6
  call void @llvm.lifetime.end.p0(i64 8, ptr %9) #6
  call void @llvm.lifetime.end.p0(i64 8, ptr %8) #6
  %93 = load i32, ptr %4, align 4
  ret i32 %93
}