; Function Attrs: nounwind uwtable
define dso_local noundef i32 @print_attribs(ptr noundef %0, ptr noundef %1, ptr noundef %2) local_unnamed_addr #0 {
  %.not = icmp eq ptr %1, null
  br i1 %.not, label %.loopexit36.sink.split, label %4

4:                                                ; preds = %3
  %5 = tail call i32 @OPENSSL_sk_num(ptr noundef nonnull %1) #6
  %.not34 = icmp eq i32 %5, 0
  br i1 %.not34, label %.loopexit36.sink.split, label %6

6:                                                ; preds = %4
  %7 = tail call i32 (ptr, ptr, ...) @BIO_printf(ptr noundef %0, ptr noundef nonnull @.str.179, ptr noundef %2) #6
  %8 = tail call i32 @OPENSSL_sk_num(ptr noundef nonnull %1) #6
  %9 = icmp sgt i32 %8, 0
  br i1 %9, label %.lr.ph39, label %.loopexit36

.lr.ph39:                                         ; preds = %6, %.loopexit
  %.03138 = phi i32 [ %31, %.loopexit ], [ 0, %6 ]
  %10 = tail call ptr @OPENSSL_sk_value(ptr noundef nonnull %1, i32 noundef %.03138) #6
  %11 = tail call ptr @X509_ATTRIBUTE_get0_object(ptr noundef %10) #6
  %12 = tail call i32 @OBJ_obj2nid(ptr noundef %11) #6
  %13 = tail call i32 (ptr, ptr, ...) @BIO_printf(ptr noundef %0, ptr noundef nonnull @.str.185) #6
  %14 = icmp eq i32 %12, 0
  br i1 %14, label %15, label %18

15:                                               ; preds = %.lr.ph39
  %16 = tail call i32 @i2a_ASN1_OBJECT(ptr noundef %0, ptr noundef %11) #6
  %17 = tail call i32 (ptr, ptr, ...) @BIO_printf(ptr noundef %0, ptr noundef nonnull @.str.186) #6
  br label %21

18:                                               ; preds = %.lr.ph39
  %19 = tail call ptr @OBJ_nid2ln(i32 noundef %12) #6
  %20 = tail call i32 (ptr, ptr, ...) @BIO_printf(ptr noundef %0, ptr noundef nonnull @.str.187, ptr noundef %19) #6
  br label %21

21:                                               ; preds = %18, %15
  %22 = tail call i32 @X509_ATTRIBUTE_count(ptr noundef %10) #6
  %.not35 = icmp eq i32 %22, 0
  br i1 %.not35, label %29, label %.preheader

.preheader:                                       ; preds = %21
  %23 = tail call i32 @X509_ATTRIBUTE_count(ptr noundef %10) #6
  %24 = icmp sgt i32 %23, 0
  br i1 %24, label %.lr.ph, label %.loopexit

.lr.ph:                                           ; preds = %.preheader, %.lr.ph
  %.03237 = phi i32 [ %26, %.lr.ph ], [ 0, %.preheader ]
  %25 = tail call ptr @X509_ATTRIBUTE_get0_type(ptr noundef %10, i32 noundef %.03237) #6
  tail call void @print_attribute(ptr noundef %0, ptr noundef %25)
  %26 = add nuw nsw i32 %.03237, 1
  %27 = tail call i32 @X509_ATTRIBUTE_count(ptr noundef %10) #6
  %28 = icmp slt i32 %26, %27
  br i1 %28, label %.lr.ph, label %.loopexit, !llvm.loop !64

29:                                               ; preds = %21
  %30 = tail call i32 (ptr, ptr, ...) @BIO_printf(ptr noundef %0, ptr noundef nonnull @.str.188) #6
  br label %.loopexit

.loopexit:                                        ; preds = %.lr.ph, %.preheader, %29
  %31 = add nuw nsw i32 %.03138, 1
  %32 = tail call i32 @OPENSSL_sk_num(ptr noundef nonnull %1) #6
  %33 = icmp slt i32 %31, %32
  br i1 %33, label %.lr.ph39, label %.loopexit36, !llvm.loop !65

.loopexit36.sink.split:                           ; preds = %4, %3
  %.str.184.sink = phi ptr [ @.str.183, %3 ], [ @.str.184, %4 ]
  %34 = tail call i32 (ptr, ptr, ...) @BIO_printf(ptr noundef %0, ptr noundef nonnull %.str.184.sink, ptr noundef %2) #6
  br label %.loopexit36

.loopexit36:                                      ; preds = %.loopexit, %.loopexit36.sink.split, %6
  ret i32 1
}